; Function Attrs: null_pointer_is_valid sspstrong uwtable
define internal fastcc void @dissect_option_route(ptr noundef %0, ptr noundef readonly captures(none) %1, ptr noundef %2, i32 noundef %3, i32 noundef %4, i32 noundef %5, i1 noundef zeroext %6) unnamed_addr #1 {
  %8 = tail call i32 @tvb_get_ipv4(ptr noundef %2, i32 noundef %3)
  br i1 %6, label %9, label %14

9:                                                ; preds = %7
  %10 = getelementptr inbounds nuw i8, ptr %1, i64 408
  %11 = load ptr, ptr %10, align 8
  %12 = tail call ptr @tvb_address_to_str(ptr noundef %11, ptr noundef %2, i32 noundef 2, i32 noundef %3)
  %13 = tail call ptr (ptr, i32, ptr, i32, i32, i32, ptr, ...) @proto_tree_add_ipv4_format_value(ptr noundef %0, i32 noundef %4, ptr noundef %2, i32 noundef %3, i32 noundef 4, i32 noundef %8, ptr noundef nonnull @.str.601, ptr noundef %12)
  br label %16

14:                                               ; preds = %7
  %15 = tail call ptr @proto_tree_add_ipv4(ptr noundef %0, i32 noundef %4, ptr noundef %2, i32 noundef %3, i32 noundef 4, i32 noundef %8)
  br label %16

16:                                               ; preds = %14, %9
  %17 = tail call zeroext i1 @proto_field_is_referenced(ptr noundef %0, i32 noundef %5)
  br i1 %17, label %18, label %proto_item_set_hidden.exit

18:                                               ; preds = %16
  %19 = getelementptr inbounds nuw i8, ptr %1, i64 408
  %20 = load ptr, ptr %19, align 8
  %21 = tail call ptr @get_hostname_wmem(ptr noundef %20, i32 noundef %8)
  %22 = tail call ptr @proto_tree_add_string(ptr noundef %0, i32 noundef %5, ptr noundef %2, i32 noundef %3, i32 noundef 4, ptr noundef %21)
  %.not.i = icmp eq ptr %22, null
  br i1 %.not.i, label %proto_item_set_hidden.exit, label %23

23:                                               ; preds = %18
  %24 = getelementptr inbounds nuw i8, ptr %22, i64 40
  %25 = load ptr, ptr %24, align 8
  %.not5.i = icmp eq ptr %25, null
  br i1 %.not5.i, label %proto_item_set_hidden.exit, label %26

26:                                               ; preds = %23
  %27 = getelementptr inbounds nuw i8, ptr %25, i64 28
  %28 = load i32, ptr %27, align 4
  %29 = or i32 %28, 2
  store i32 %29, ptr %27, align 4
  %.pre = load ptr, ptr %24, align 8
  %.not5.i26 = icmp eq ptr %.pre, null
  br i1 %.not5.i26, label %proto_item_set_hidden.exit, label %30

30:                                               ; preds = %26
  %31 = getelementptr inbounds nuw i8, ptr %.pre, i64 28
  %32 = load i32, ptr %31, align 4
  %33 = or i32 %32, 1
  store i32 %33, ptr %31, align 4
  br label %proto_item_set_hidden.exit

proto_item_set_hidden.exit:                       ; preds = %23, %30, %26, %18, %16
  ret void
}